; Function Attrs: mustprogress nofree norecurse nosync nounwind willreturn memory(read, inaccessiblemem: none) uwtable
define noundef zeroext i1 @_ZNK7openvdb5v11_02io14StreamMetadata15delayedLoadMetaEv(ptr nocapture noundef nonnull readonly align 8 dereferenceable(8) %this) local_unnamed_addr #9 align 2 {
entry:
  %0 = load ptr, ptr %this, align 8
  %mDelayedLoadMeta = getelementptr inbounds i8, ptr %0, i64 144
  %1 = load i8, ptr %mDelayedLoadMeta, align 8
  %2 = and i8 %1, 1
  %tobool = icmp ne i8 %2, 0
  ret i1 %tobool
}